target datalayout = "e-m:e-p270:32:32-p271:32:32-p272:64:64-i64:64-i128:128-f80:128-n8:16:32:64-S128"
target triple = "x86_64-pc-linux-gnu"

%struct.llama_context = type { ptr, %struct.llama_cparams, %struct.llama_sbatch, %struct.llama_kv_cache, %struct.llama_adapter_cvec, %"class.std::unordered_map", %"class.std::vector.50", %"class.std::vector.55", ptr, ptr, ptr, i8, i64, i64, i64, i64, i64, i64, i32, i32, %"class.std::unique_ptr", i64, ptr, %"class.std::vector.5", i64, i32, i8, i64, ptr, %"class.std::map", i8, i32, %"class.std::vector.10", %"class.std::vector.65", %"class.std::vector.70", %"class.std::unique_ptr.75", ptr, ptr, ptr, ptr, ptr, ptr, ptr, ptr, ptr, ptr, ptr, ptr, ptr, ptr, ptr, ptr, ptr }
%struct.llama_cparams = type { i32, i32, i32, i32, i32, i32, float, float, i32, float, float, float, float, float, i8, i8, i8, i8, i8, i32, ptr, ptr }
%struct.llama_sbatch = type { i64, i64, i8, %"class.std::vector", %"class.std::vector", %"class.std::vector.0", ptr, %"class.std::vector.5", %"class.std::vector.10", %"class.std::vector.5", %"class.std::vector.5", %"class.std::vector.15", %"class.std::vector.20" }
%"class.std::vector" = type { %"struct.std::_Vector_base" }
%"struct.std::_Vector_base" = type { %"struct.std::_Vector_base<unsigned long, std::allocator<unsigned long>>::_Vector_impl" }
%"struct.std::_Vector_base<unsigned long, std::allocator<unsigned long>>::_Vector_impl" = type { %"struct.std::_Vector_base<unsigned long, std::allocator<unsigned long>>::_Vector_impl_data" }
%"struct.std::_Vector_base<unsigned long, std::allocator<unsigned long>>::_Vector_impl_data" = type { ptr, ptr, ptr }
%"class.std::vector.0" = type { %"struct.std::_Vector_base.1" }
%"struct.std::_Vector_base.1" = type { %"struct.std::_Vector_base<llama_sbatch_seq, std::allocator<llama_sbatch_seq>>::_Vector_impl" }
%"struct.std::_Vector_base<llama_sbatch_seq, std::allocator<llama_sbatch_seq>>::_Vector_impl" = type { %"struct.std::_Vector_base<llama_sbatch_seq, std::allocator<llama_sbatch_seq>>::_Vector_impl_data" }
%"struct.std::_Vector_base<llama_sbatch_seq, std::allocator<llama_sbatch_seq>>::_Vector_impl_data" = type { ptr, ptr, ptr }
%"class.std::vector.15" = type { %"struct.std::_Vector_base.16" }
%"struct.std::_Vector_base.16" = type { %"struct.std::_Vector_base<int *, std::allocator<int *>>::_Vector_impl" }
%"struct.std::_Vector_base<int *, std::allocator<int *>>::_Vector_impl" = type { %"struct.std::_Vector_base<int *, std::allocator<int *>>::_Vector_impl_data" }
%"struct.std::_Vector_base<int *, std::allocator<int *>>::_Vector_impl_data" = type { ptr, ptr, ptr }
%"class.std::vector.20" = type { %"struct.std::_Vector_base.21" }
%"struct.std::_Vector_base.21" = type { %"struct.std::_Vector_base<signed char, std::allocator<signed char>>::_Vector_impl" }
%"struct.std::_Vector_base<signed char, std::allocator<signed char>>::_Vector_impl" = type { %"struct.std::_Vector_base<signed char, std::allocator<signed char>>::_Vector_impl_data" }
%"struct.std::_Vector_base<signed char, std::allocator<signed char>>::_Vector_impl_data" = type { ptr, ptr, ptr }
%struct.llama_kv_cache = type { i8, i8, i8, i8, i8, i32, i32, i32, i32, i32, i32, %"class.std::vector.25", %"class.std::vector.30", %"class.std::vector.30", %"class.std::vector.35", %"class.std::vector.40" }
%"class.std::vector.25" = type { %"struct.std::_Vector_base.26" }
%"struct.std::_Vector_base.26" = type { %"struct.std::_Vector_base<llama_kv_cell, std::allocator<llama_kv_cell>>::_Vector_impl" }
%"struct.std::_Vector_base<llama_kv_cell, std::allocator<llama_kv_cell>>::_Vector_impl" = type { %"struct.std::_Vector_base<llama_kv_cell, std::allocator<llama_kv_cell>>::_Vector_impl_data" }
%"struct.std::_Vector_base<llama_kv_cell, std::allocator<llama_kv_cell>>::_Vector_impl_data" = type { ptr, ptr, ptr }
%"class.std::vector.30" = type { %"struct.std::_Vector_base.31" }
%"struct.std::_Vector_base.31" = type { %"struct.std::_Vector_base<ggml_tensor *, std::allocator<ggml_tensor *>>::_Vector_impl" }
%"struct.std::_Vector_base<ggml_tensor *, std::allocator<ggml_tensor *>>::_Vector_impl" = type { %"struct.std::_Vector_base<ggml_tensor *, std::allocator<ggml_tensor *>>::_Vector_impl_data" }
%"struct.std::_Vector_base<ggml_tensor *, std::allocator<ggml_tensor *>>::_Vector_impl_data" = type { ptr, ptr, ptr }
%"class.std::vector.35" = type { %"struct.std::_Vector_base.36" }
%"struct.std::_Vector_base.36" = type { %"struct.std::_Vector_base<std::unique_ptr<ggml_context, ggml_context_deleter>, std::allocator<std::unique_ptr<ggml_context, ggml_context_deleter>>>::_Vector_impl" }
%"struct.std::_Vector_base<std::unique_ptr<ggml_context, ggml_context_deleter>, std::allocator<std::unique_ptr<ggml_context, ggml_context_deleter>>>::_Vector_impl" = type { %"struct.std::_Vector_base<std::unique_ptr<ggml_context, ggml_context_deleter>, std::allocator<std::unique_ptr<ggml_context, ggml_context_deleter>>>::_Vector_impl_data" }
%"struct.std::_Vector_base<std::unique_ptr<ggml_context, ggml_context_deleter>, std::allocator<std::unique_ptr<ggml_context, ggml_context_deleter>>>::_Vector_impl_data" = type { ptr, ptr, ptr }
%"class.std::vector.40" = type { %"struct.std::_Vector_base.41" }
%"struct.std::_Vector_base.41" = type { %"struct.std::_Vector_base<std::unique_ptr<ggml_backend_buffer, ggml_backend_buffer_deleter>, std::allocator<std::unique_ptr<ggml_backend_buffer, ggml_backend_buffer_deleter>>>::_Vector_impl" }
%"struct.std::_Vector_base<std::unique_ptr<ggml_backend_buffer, ggml_backend_buffer_deleter>, std::allocator<std::unique_ptr<ggml_backend_buffer, ggml_backend_buffer_deleter>>>::_Vector_impl" = type { %"struct.std::_Vector_base<std::unique_ptr<ggml_backend_buffer, ggml_backend_buffer_deleter>, std::allocator<std::unique_ptr<ggml_backend_buffer, ggml_backend_buffer_deleter>>>::_Vector_impl_data" }
%"struct.std::_Vector_base<std::unique_ptr<ggml_backend_buffer, ggml_backend_buffer_deleter>, std::allocator<std::unique_ptr<ggml_backend_buffer, ggml_backend_buffer_deleter>>>::_Vector_impl_data" = type { ptr, ptr, ptr }
%struct.llama_adapter_cvec = type { i32, i32, %"class.std::vector.35", %"class.std::vector.40", %"class.std::vector.30" }
%"class.std::unordered_map" = type { %"class.std::_Hashtable" }
%"class.std::_Hashtable" = type { ptr, i64, %"struct.std::__detail::_Hash_node_base", i64, %"struct.std::__detail::_Prime_rehash_policy", ptr }
%"struct.std::__detail::_Hash_node_base" = type { ptr }
%"struct.std::__detail::_Prime_rehash_policy" = type { float, i64 }
%"class.std::vector.50" = type { %"struct.std::_Vector_base.51" }
%"struct.std::_Vector_base.51" = type { %"struct.std::_Vector_base<std::unique_ptr<ggml_backend, ggml_backend_deleter>, std::allocator<std::unique_ptr<ggml_backend, ggml_backend_deleter>>>::_Vector_impl" }
%"struct.std::_Vector_base<std::unique_ptr<ggml_backend, ggml_backend_deleter>, std::allocator<std::unique_ptr<ggml_backend, ggml_backend_deleter>>>::_Vector_impl" = type { %"struct.std::_Vector_base<std::unique_ptr<ggml_backend, ggml_backend_deleter>, std::allocator<std::unique_ptr<ggml_backend, ggml_backend_deleter>>>::_Vector_impl_data" }
%"struct.std::_Vector_base<std::unique_ptr<ggml_backend, ggml_backend_deleter>, std::allocator<std::unique_ptr<ggml_backend, ggml_backend_deleter>>>::_Vector_impl_data" = type { ptr, ptr, ptr }
%"class.std::vector.55" = type { %"struct.std::_Vector_base.56" }
%"struct.std::_Vector_base.56" = type { %"struct.std::_Vector_base<std::pair<ggml_backend *, void (*)(ggml_backend *, int)>, std::allocator<std::pair<ggml_backend *, void (*)(ggml_backend *, int)>>>::_Vector_impl" }
%"struct.std::_Vector_base<std::pair<ggml_backend *, void (*)(ggml_backend *, int)>, std::allocator<std::pair<ggml_backend *, void (*)(ggml_backend *, int)>>>::_Vector_impl" = type { %"struct.std::_Vector_base<std::pair<ggml_backend *, void (*)(ggml_backend *, int)>, std::allocator<std::pair<ggml_backend *, void (*)(ggml_backend *, int)>>>::_Vector_impl_data" }
%"struct.std::_Vector_base<std::pair<ggml_backend *, void (*)(ggml_backend *, int)>, std::allocator<std::pair<ggml_backend *, void (*)(ggml_backend *, int)>>>::_Vector_impl_data" = type { ptr, ptr, ptr }
%"class.std::unique_ptr" = type { %"struct.std::__uniq_ptr_data" }
%"struct.std::__uniq_ptr_data" = type { %"class.std::__uniq_ptr_impl" }
%"class.std::__uniq_ptr_impl" = type { %"class.std::tuple" }
%"class.std::tuple" = type { %"struct.std::_Tuple_impl" }
%"struct.std::_Tuple_impl" = type { %"struct.std::_Head_base.61" }
%"struct.std::_Head_base.61" = type { ptr }
%"class.std::vector.5" = type { %"struct.std::_Vector_base.6" }
%"struct.std::_Vector_base.6" = type { %"struct.std::_Vector_base<int, std::allocator<int>>::_Vector_impl" }
%"struct.std::_Vector_base<int, std::allocator<int>>::_Vector_impl" = type { %"struct.std::_Vector_base<int, std::allocator<int>>::_Vector_impl_data" }
%"struct.std::_Vector_base<int, std::allocator<int>>::_Vector_impl_data" = type { ptr, ptr, ptr }
%"class.std::map" = type { %"class.std::_Rb_tree" }
%"class.std::_Rb_tree" = type { %"struct.std::_Rb_tree<int, std::pair<const int, std::vector<float>>, std::_Select1st<std::pair<const int, std::vector<float>>>, std::less<int>>::_Rb_tree_impl" }
%"struct.std::_Rb_tree<int, std::pair<const int, std::vector<float>>, std::_Select1st<std::pair<const int, std::vector<float>>>, std::less<int>>::_Rb_tree_impl" = type { [8 x i8], %"struct.std::_Rb_tree_header" }
%"struct.std::_Rb_tree_header" = type { %"struct.std::_Rb_tree_node_base", i64 }
%"struct.std::_Rb_tree_node_base" = type { i32, ptr, ptr, ptr }
%"class.std::vector.10" = type { %"struct.std::_Vector_base.11" }
%"struct.std::_Vector_base.11" = type { %"struct.std::_Vector_base<float, std::allocator<float>>::_Vector_impl" }
%"struct.std::_Vector_base<float, std::allocator<float>>::_Vector_impl" = type { %"struct.std::_Vector_base<float, std::allocator<float>>::_Vector_impl_data" }
%"struct.std::_Vector_base<float, std::allocator<float>>::_Vector_impl_data" = type { ptr, ptr, ptr }
%"class.std::vector.65" = type { %"struct.std::_Vector_base.66" }
%"struct.std::_Vector_base.66" = type { %"struct.std::_Vector_base<std::set<int>, std::allocator<std::set<int>>>::_Vector_impl" }
%"struct.std::_Vector_base<std::set<int>, std::allocator<std::set<int>>>::_Vector_impl" = type { %"struct.std::_Vector_base<std::set<int>, std::allocator<std::set<int>>>::_Vector_impl_data" }
%"struct.std::_Vector_base<std::set<int>, std::allocator<std::set<int>>>::_Vector_impl_data" = type { ptr, ptr, ptr }
%"class.std::vector.70" = type { %"struct.std::_Vector_base.71" }
%"struct.std::_Vector_base.71" = type { %"struct.std::_Vector_base<unsigned char, std::allocator<unsigned char>>::_Vector_impl" }
%"struct.std::_Vector_base<unsigned char, std::allocator<unsigned char>>::_Vector_impl" = type { %"struct.std::_Vector_base<unsigned char, std::allocator<unsigned char>>::_Vector_impl_data" }
%"struct.std::_Vector_base<unsigned char, std::allocator<unsigned char>>::_Vector_impl_data" = type { ptr, ptr, ptr }
%"class.std::unique_ptr.75" = type { %"struct.std::__uniq_ptr_data.76" }
%"struct.std::__uniq_ptr_data.76" = type { %"class.std::__uniq_ptr_impl.77" }
%"class.std::__uniq_ptr_impl.77" = type { %"class.std::tuple.78" }
%"class.std::tuple.78" = type { %"struct.std::_Tuple_impl.79" }
%"struct.std::_Tuple_impl.79" = type { %"struct.std::_Head_base.82" }
%"struct.std::_Head_base.82" = type { ptr }
%struct.ggml_tensor = type { i32, ptr, [4 x i64], [4 x i64], i32, [16 x i32], i32, [10 x ptr], ptr, i64, ptr, [64 x i8], ptr, [8 x i8] }
%struct.llama_kv_cell = type { i32, i32, i32, i32, %"class.std::set" }
%"class.std::set" = type { %"class.std::_Rb_tree.83" }
%"class.std::_Rb_tree.83" = type { %"struct.std::_Rb_tree<int, int, std::_Identity<int>, std::less<int>>::_Rb_tree_impl" }
%"struct.std::_Rb_tree<int, int, std::_Identity<int>, std::less<int>>::_Rb_tree_impl" = type { [8 x i8], %"struct.std::_Rb_tree_header" }

; Function Attrs: mustprogress nounwind uwtable
define linkonce_odr noundef nonnull align 8 dereferenceable(64) ptr @_ZNSt6vectorI13llama_kv_cellSaIS0_EEixEm(ptr noundef nonnull align 8 dereferenceable(24) %0, i64 noundef %1) #0 comdat align 2 {
  %3 = alloca ptr, align 8
  %4 = alloca i64, align 8
  store ptr %0, ptr %3, align 8, !tbaa !138
  store i64 %1, ptr %4, align 8, !tbaa !124
  %5 = load ptr, ptr %3, align 8
  %6 = getelementptr inbounds nuw %"struct.std::_Vector_base.26", ptr %5, i32 0, i32 0
  %7 = getelementptr inbounds nuw %"struct.std::_Vector_base<llama_kv_cell, std::allocator<llama_kv_cell>>::_Vector_impl_data", ptr %6, i32 0, i32 0
  %8 = load ptr, ptr %7, align 8, !tbaa !140
  %9 = load i64, ptr %4, align 8, !tbaa !124
  %10 = getelementptr inbounds nuw %struct.llama_kv_cell, ptr %8, i64 %9
  ret ptr %10
}

; Function Attrs: mustprogress nounwind uwtable
define void @_Z17llama_set_k_shiftR13llama_context(ptr noundef nonnull align 8 dereferenceable(1120) %0) #0 {
  %2 = alloca ptr, align 8
  %3 = alloca i64, align 8
  %4 = alloca ptr, align 8
  %5 = alloca i32, align 4
  store ptr %0, ptr %2, align 8, !tbaa !3
  call void @llvm.lifetime.start.p0(i64 8, ptr %3) #19
  %6 = load ptr, ptr %2, align 8, !tbaa !3
  %7 = getelementptr inbounds nuw %struct.llama_context, ptr %6, i32 0, i32 3
  %8 = getelementptr inbounds nuw %struct.llama_kv_cache, ptr %7, i32 0, i32 6
  %9 = load i32, ptr %8, align 4, !tbaa !8
  %10 = zext i32 %9 to i64
  store i64 %10, ptr %3, align 8, !tbaa !124
  call void @llvm.lifetime.start.p0(i64 8, ptr %4) #19
  %11 = load ptr, ptr %2, align 8, !tbaa !3
  %12 = getelementptr inbounds nuw %struct.llama_context, ptr %11, i32 0, i32 44
  %13 = load ptr, ptr %12, align 8, !tbaa !125
  %14 = getelementptr inbounds nuw %struct.ggml_tensor, ptr %13, i32 0, i32 10
  %15 = load ptr, ptr %14, align 8, !tbaa !126
  store ptr %15, ptr %4, align 8, !tbaa !129
  call void @llvm.lifetime.start.p0(i64 4, ptr %5) #19
  store i32 0, ptr %5, align 4, !tbaa !130
  br label %16

16:                                               ; preds = %35, %1
  %17 = load i32, ptr %5, align 4, !tbaa !130
  %18 = sext i32 %17 to i64
  %19 = load i64, ptr %3, align 8, !tbaa !124
  %20 = icmp slt i64 %18, %19
  br i1 %20, label %22, label %21

21:                                               ; preds = %16
  call void @llvm.lifetime.end.p0(i64 4, ptr %5) #19
  br label %38

22:                                               ; preds = %16
  %23 = load ptr, ptr %2, align 8, !tbaa !3
  %24 = getelementptr inbounds nuw %struct.llama_context, ptr %23, i32 0, i32 3
  %25 = getelementptr inbounds nuw %struct.llama_kv_cache, ptr %24, i32 0, i32 11
  %26 = load i32, ptr %5, align 4, !tbaa !130
  %27 = sext i32 %26 to i64
  %28 = call noundef nonnull align 8 dereferenceable(64) ptr @_ZNSt6vectorI13llama_kv_cellSaIS0_EEixEm(ptr noundef nonnull align 8 dereferenceable(24) %25, i64 noundef %27) #19
  %29 = getelementptr inbounds nuw %struct.llama_kv_cell, ptr %28, i32 0, i32 1
  %30 = load i32, ptr %29, align 4, !tbaa !131
  %31 = load ptr, ptr %4, align 8, !tbaa !129
  %32 = load i32, ptr %5, align 4, !tbaa !130
  %33 = sext i32 %32 to i64
  %34 = getelementptr inbounds i32, ptr %31, i64 %33
  store i32 %30, ptr %34, align 4, !tbaa !130
  br label %35

35:                                               ; preds = %22
  %36 = load i32, ptr %5, align 4, !tbaa !130
  %37 = add nsw i32 %36, 1
  store i32 %37, ptr %5, align 4, !tbaa !130
  br label %16, !llvm.loop !136

38:                                               ; preds = %21
  call void @llvm.lifetime.end.p0(i64 8, ptr %4) #19
  call void @llvm.lifetime.end.p0(i64 8, ptr %3) #19
  ret void
}